(lp1
(lp2
(cnumpy.core.multiarray
scalar
p3
(cnumpy
dtype
p4
(S'f8'
I0
I1
tRp5
(I3
S'<'
NNNI-1
I-1
I0
tbS'\x00\x00\x00`\x16\xf2\xe1?'
tRp6
g3
(g5
S'\x00\x00\x00\xa0\xa4\xd9\xe3?'
tRp7
S'7'
I0
tp8
a(g3
(g5
S'\x00\x00\x00@(n\xd6?'
tRp9
g3
(g5
S"\x00\x00\x00\xc8\x90'\xe1?"
tRp10
S'7'
I1
tp11
aa(lp12
a(lp13
a(lp14
a(lp15
a(lp16
a(lp17
a(lp18
a(lp19
a(lp20
a(lp21
a(lp22
a(lp23
a(lp24
a(lp25
a(lp26
a(lp27
a(lp28
a(lp29
a(lp30
a(lp31
a(lp32
a(lp33
a(lp34
a(lp35
a(lp36
a(lp37
a(lp38
a(lp39
a(lp40
a(lp41
a(lp42
a(lp43
a(lp44
a(lp45
a(lp46
a(lp47
a(lp48
a(lp49
a(lp50
a(lp51
a(lp52
a(lp53
a(lp54
a(lp55
a(lp56
a(lp57
a(lp58
a(lp59
a(lp60
a(lp61
a(lp62
a(lp63
a(lp64
a(lp65
a(lp66
a(lp67
(g3
(g5
S'\x00\x00\x00\x803 \xeb?'
tRp68
g3
(g5
S'\x00\x00\x00`\xbc\xb3\xda?'
tRp69
S'7'
I2
tp70
aa(lp71
a(lp72
a(lp73
a(lp74
a(lp75
a(lp76
a(lp77
a(lp78
a(lp79
a(lp80
a(lp81
a(lp82
a(lp83
a(lp84
a(lp85
a(lp86
a(lp87
a(lp88
a(lp89
a(lp90
a(lp91
a(lp92
a(lp93
a(lp94
a(lp95
a(lp96
a(lp97
a(lp98
(g3
(g5
S'\x00\x00\x00\x80D\xec\xc8?'
tRp99
g3
(g5
S'\x00\x00\x00p\x80\xb0\xdf?'
tRp100
S'7'
I3
tp101
aa(lp102
a(lp103
a(lp104
a(lp105
a(lp106
a(lp107
a(lp108
a(lp109
a(lp110
a(lp111
a(lp112
a(lp113
a(lp114
a(lp115
a(lp116
a(lp117
a(lp118
a(lp119
a(lp120
a(lp121
a(lp122
a(lp123
a(lp124
a(lp125
a(lp126
a(lp127
a(lp128
a(lp129
a(lp130
a(lp131
a(lp132
a(lp133
a(lp134
a(lp135
a(lp136
a(lp137
a(lp138
a(lp139
a(lp140
a(lp141
a(lp142
a(lp143
a(lp144
a(lp145
a(lp146
a(lp147
a(lp148
a(lp149
a(lp150
a(lp151
a(lp152
a(lp153
a(lp154
a(lp155
a(lp156
a(lp157
a(lp158
a(lp159
a(lp160
a(lp161
a(lp162
a(lp163
a(lp164
a(lp165
a(lp166
a(lp167
a(lp168
a(lp169
a(lp170
a(lp171
a(lp172
a(lp173
a(lp174
a(lp175
a(lp176
a(lp177
a(lp178
a(lp179
a(lp180
a(lp181
a(lp182
a(lp183
a(lp184
a(lp185
a(lp186
a(lp187
a(lp188
a(lp189
a(lp190
a(lp191
a(lp192
a(lp193
a(lp194
a(lp195
a(lp196
a(lp197
a(lp198
a(lp199
a(lp200
a(lp201
a(lp202
a(lp203
a(lp204
a(lp205
a(lp206
a(lp207
a(lp208
a(lp209
a(lp210
a(lp211
a(lp212
a(lp213
a(lp214
a(lp215
a(lp216
a(lp217
a(lp218
a(lp219
a(lp220
a(lp221
a(lp222
a(lp223
a(lp224
a(lp225
a(lp226
a(lp227
a(lp228
a(lp229
a(lp230
a(lp231
a(lp232
a(lp233
a(lp234
a(lp235
a(lp236
a(lp237
a(lp238
a(lp239
a(lp240
a(lp241
a(lp242
a(lp243
a(lp244
a(lp245
a(lp246
a(lp247
a(lp248
a(lp249
a(lp250
a(lp251
a(lp252
a(lp253
a(lp254
a(lp255
a(lp256
a(lp257
a(lp258
a(lp259
a(lp260
a(lp261
a(lp262
a(lp263
a(lp264
a(lp265
a(lp266
a(lp267
a(lp268
a(lp269
a(lp270
a(lp271
a(lp272
a(lp273
a(lp274
a(lp275
a(lp276
a(lp277
a(lp278
a(lp279
a(lp280
a(lp281
a(lp282
a(lp283
a(lp284
a(lp285
a(lp286
a(lp287
a(lp288
a(lp289
a(lp290
a(lp291
a(lp292
a(lp293
a(lp294
a(lp295
a(lp296
a(lp297
a(lp298
a(lp299
a(lp300
a(lp301
a(lp302
a(lp303
a(lp304
a(lp305
a(lp306
a(lp307
a(lp308
a(lp309
a(lp310
a(lp311
a(lp312
a(lp313
a(lp314
a(lp315
a(lp316
a(lp317
a(lp318
a(lp319
(g3
(g5
S'\x00\x00\x00\xa0%\xf0\xd4?'
tRp320
g3
(g5
S'\x00\x00\x00\xa0\xc5\x7f\xed?'
tRp321
S'7'
I4
tp322
aa(lp323
a(lp324
a(lp325
a(lp326
a(lp327
a(lp328
a(lp329
a(lp330
a(lp331
a(lp332
a(lp333
a(lp334
a(lp335
a(lp336
a(lp337
a(lp338
a(lp339
a(lp340
a(lp341
a(lp342
a(lp343
a(lp344
a(lp345
a(lp346
a(lp347
a(lp348
a(lp349
a(lp350
a(lp351
a(lp352
a(lp353
a(lp354
a(lp355
a(lp356
a(lp357
a(lp358
a(lp359
a(lp360
a(lp361
a(lp362
a(lp363
a(lp364
a(lp365
a(lp366
a(lp367
a(lp368
a(lp369
a(lp370
a(lp371
a(lp372
a(lp373
a(lp374
a(lp375
a(lp376
a(lp377
a(lp378
a(lp379
a(lp380
a(lp381
a(lp382
a(lp383
a(lp384
a(lp385
a(lp386
a(lp387
a(lp388
a(lp389
a(lp390
a(lp391
a(lp392
a(lp393
a(lp394
a(lp395
a(lp396
a(lp397
a(lp398
a(lp399
a(lp400
a(lp401
a(lp402
a(lp403
a(lp404
a(lp405
a(lp406
a(lp407
a(lp408
a(lp409
a(lp410
a(lp411
a(lp412
a(lp413
a(lp414
a(lp415
a(lp416
a(lp417
a(lp418
a(lp419
a(lp420
a(lp421
a(lp422
a(lp423
a(lp424
a(lp425
a(lp426
a(lp427
a(lp428
a(lp429
a(lp430
a(lp431
a(lp432
(g3
(g5
S'\x00\x00\x00\xe0\xe6;\xe9?'
tRp433
g3
(g5
S'\x00\x00\x00`Z~\xdc?'
tRp434
g3
(g4
(S'i8'
I0
I1
tRp435
(I3
S'<'
NNNI-1
I-1
I0
tbS'\x07\x00\x00\x00\x00\x00\x00\x00'
tRp436
I2
tp437
aa(lp438
a(lp439
a(lp440
a(lp441
a(lp442
a(lp443
a(lp444
a(lp445
a(lp446
a(lp447
a(lp448
a(lp449
a(lp450
a(lp451
a(lp452
a(lp453
a(lp454
a(lp455
a(lp456
a(lp457
a(lp458
a(lp459
a(lp460
a(lp461
a(lp462
a(lp463
a(lp464
a(lp465
a(lp466
a(lp467
a(lp468
a(lp469
a(lp470
a(lp471
a(lp472
a(lp473
a(lp474
a(lp475
a(lp476
a(lp477
a(lp478
a(lp479
a(lp480
a(lp481
a(lp482
a(lp483
a(lp484
a(lp485
a(lp486
a(lp487
a(lp488
a(lp489
a(lp490
a(lp491
a(lp492
a(lp493
a(lp494
a(lp495
a(lp496
a(lp497
a(lp498
a(lp499
a(lp500
a(lp501
a(lp502
a(lp503
a(lp504
a(lp505
a(lp506
a(lp507
a(lp508
a(lp509
a(lp510
a(lp511
a(lp512
a(lp513
a(lp514
a(lp515
a(lp516
a(lp517
a(lp518
a(lp519
a(lp520
a(lp521
a(lp522
a(lp523
a(lp524
a(lp525
a(lp526
a(lp527
a(lp528
a(lp529
a(lp530
a(lp531
a(lp532
a(lp533
a(lp534
a(lp535
a(lp536
a(lp537
a(lp538
a(lp539
a(lp540
a(lp541
a(lp542
a(lp543
a(lp544
a(lp545
a(lp546
a(lp547
a(lp548
a(lp549
a(lp550
a(lp551
a(lp552
a(lp553
a(lp554
a(lp555
a(lp556
a(lp557
a(lp558
a(lp559
a(lp560
a(lp561
a(lp562
a(lp563
a(lp564
a(lp565
a(lp566
a(lp567
a(lp568
a(lp569
a(lp570
a(lp571
a(lp572
a(lp573
a(lp574
a(lp575
a(lp576
a(lp577
a(lp578
a(lp579
a(lp580
a(lp581
a(lp582
a(lp583
a(lp584
a(lp585
a(lp586
a(lp587
a(lp588
a(lp589
a(lp590
a(lp591
a(lp592
a(lp593
a(lp594
a(lp595
a(lp596
a(lp597
a(lp598
a(lp599
a(lp600
a(lp601
a(lp602
a(lp603
a(lp604
a(lp605
a(lp606
a(lp607
a(lp608
a(lp609
a(lp610
a(lp611
a(lp612
a(lp613
a(lp614
a(lp615
a(lp616
a(lp617
a(lp618
a(lp619
a(lp620
a(lp621
a(lp622
a(lp623
a(lp624
a(lp625
a(lp626
a(lp627
a(lp628
a(lp629
a(lp630
a(lp631
a(lp632
a(lp633
a(lp634
a(lp635
a(lp636
a(lp637
a(lp638
a(lp639
a(lp640
a(lp641
a(lp642
a(lp643
a(lp644
a(lp645
a(lp646
a(lp647
a(lp648
a(lp649
a(lp650
a(lp651
a(lp652
a(lp653
a(lp654
a(lp655
a(lp656
a(lp657
a(lp658
a(lp659
a(lp660
a(lp661
a(lp662
a(lp663
a(lp664
a(lp665
a(lp666
a(lp667
a(lp668
a(lp669
a(lp670
a(lp671
a(lp672
a(lp673
a(lp674
a(lp675
a(lp676
a(lp677
a(lp678
a(lp679
a(lp680
a(lp681
a(lp682
a(lp683
a(lp684
a(lp685
a(lp686
a(lp687
a(lp688
a(lp689
a(lp690
a(lp691
a(lp692
a(lp693
a(lp694
a(lp695
a(lp696
a(lp697
a(lp698
a(lp699
a(lp700
a(lp701
a(lp702
a(lp703
a(lp704
a(lp705
a(lp706
a(lp707
a(lp708
a(lp709
a(lp710
a(lp711
a(lp712
a(lp713
a(lp714
a(lp715
a(lp716
a(lp717
a(lp718
a(lp719
a(lp720
a(lp721
a(lp722
a(lp723
a(lp724
a(lp725
a(lp726
a(lp727
a(lp728
a(lp729
a(lp730
a(lp731
a(lp732
a(lp733
a(lp734
a(lp735
a(lp736
a(lp737
a(lp738
a(lp739
a(lp740
a(lp741
a(lp742
a(lp743
a(lp744
a(lp745
a(lp746
a(lp747
a(lp748
a(lp749
a(lp750
a(lp751
a(lp752
a(lp753
a(lp754
a(lp755
a(lp756
a(lp757
a(lp758
a(lp759
a(lp760
a(lp761
a(lp762
a(lp763
a(lp764
a(lp765
a(lp766
a(lp767
a(lp768
a(lp769
a(lp770
a(lp771
a(lp772
a(lp773
a(lp774
a(lp775
a(lp776
a(lp777
a(lp778
a(lp779
a(lp780
a(lp781
a(lp782
a(lp783
a(lp784
a(lp785
a(lp786
a(lp787
a(lp788
a(lp789
a(lp790
a(lp791
a(lp792
a(lp793
a(lp794
a(lp795
a(lp796
a(lp797
a(lp798
a(lp799
a(lp800
a(lp801
a(lp802
a(lp803
a(lp804
a(lp805
a(lp806
a(lp807
a(lp808
a(lp809
a(lp810
a(lp811
a(lp812
a(lp813
a(lp814
(g3
(g5
S'\x00\x00\x00\xc0h\xd8\xe3?'
tRp815
g3
(g5
S'\x00\x00\x00 \xd2\xbf\xdf?'
tRp816
S'15'
I5
tp817
aa(lp818
a(lp819
a(lp820
a(lp821
a(lp822
a(lp823
a(lp824
a(lp825
a(lp826
a(lp827
a(lp828
a(lp829
a(lp830
a(lp831
a(lp832
a(lp833
a(lp834
a(lp835
a(lp836
a(lp837
a(lp838
a(lp839
a(lp840
a(lp841
a(lp842
a(lp843
a(lp844
a(lp845
a(lp846
a(lp847
a(lp848
a(lp849
a(lp850
a(lp851
a(lp852
a(lp853
a(lp854
a(lp855
a(lp856
a(lp857
a(lp858
a(lp859
a(lp860
a(lp861
a(lp862
a(lp863
a(lp864
a(lp865
a(lp866
a(lp867
a(lp868
a(lp869
a(lp870
a(lp871
a(lp872
a(lp873
a(lp874
a(lp875
a(lp876
a(lp877
a(lp878
a(lp879
a(lp880
a(lp881
a(lp882
a(lp883
a(lp884
a(lp885
a(lp886
a(lp887
a(lp888
a(lp889
a(lp890
a(lp891
a(lp892
a(lp893
a(lp894
a(lp895
a(lp896
a(lp897
a(lp898
a(lp899
a(lp900
a(lp901
a(lp902
a(lp903
a(lp904
a(lp905
a(lp906
a(lp907
a(lp908
a(lp909
a(lp910
a(lp911
a(lp912
a(lp913
a(lp914
a(lp915
a(lp916
a(lp917
a(lp918
a(lp919
a(lp920
a(lp921
a(lp922
a(lp923
a(lp924
a(lp925
(g3
(g5
S'\x00\x00\x00@\xabb\xc0?'
tRp926
g3
(g5
S'\x00\x00\x00\x00\x97\xf5\xed?'
tRp927
S'3'
I6
tp928
aa(lp929
a(lp930
a(lp931
a(lp932
a(lp933
a(lp934
a(lp935
a(lp936
a(lp937
a(lp938
a(lp939
a(lp940
a(lp941
a(lp942
a(lp943
a(lp944
a(lp945
a(lp946
a(lp947
a(lp948
a(lp949
a(lp950
a(lp951
a(lp952
a(lp953
a(lp954
a(lp955
a(lp956
a(lp957
a(lp958
a(lp959
a(lp960
a(lp961
a(lp962
a(lp963
a(lp964
a(lp965
a(lp966
a(lp967
a(lp968
a(lp969
a(lp970
a(lp971
a(lp972
a(lp973
a(lp974
a(lp975
a(lp976
a(lp977
a(lp978
a(lp979
a(lp980
a(lp981
a(lp982
a(lp983
a(lp984
a(lp985
a(lp986
a(lp987
a(lp988
a(lp989
a(lp990
a(lp991
a(lp992
a(lp993
a(lp994
a(lp995
a(lp996
a(lp997
a(lp998
a(lp999
a(lp1000
a(lp1001
a(lp1002
a(lp1003
a(lp1004
a(lp1005
a(lp1006
a(lp1007
a(lp1008
a(lp1009
a(lp1010
a(lp1011
a(lp1012
a(lp1013
a(lp1014
a(lp1015
a(lp1016
a(lp1017
a(lp1018
a(lp1019
a(lp1020
a(lp1021
a(lp1022
a(lp1023
a(lp1024
a(lp1025
a(lp1026
a(lp1027
a(lp1028
a(lp1029
a(lp1030
a(lp1031
a(lp1032
a(lp1033
a(lp1034
a(lp1035
a(lp1036
a(lp1037
a(lp1038
a(lp1039
a(lp1040
a(lp1041
a(lp1042
a(lp1043
a(lp1044
a(lp1045
a(lp1046
a(lp1047
a(lp1048
a(lp1049
a(lp1050
a(lp1051
a(lp1052
a(lp1053
a(lp1054
a(lp1055
a(lp1056
a(lp1057
a(lp1058
a(lp1059
a(lp1060
a(lp1061
a(lp1062
a(lp1063
a(lp1064
a(lp1065
a(lp1066
a(lp1067
a(lp1068
a(lp1069
a(lp1070
a(lp1071
a(lp1072
a(lp1073
a(lp1074
a(lp1075
a(lp1076
a(lp1077
a(lp1078
a(lp1079
a(lp1080
a(lp1081
a(lp1082
a(lp1083
a(lp1084
a(lp1085
a(lp1086
a(lp1087
a(lp1088
a(lp1089
a(lp1090
a(lp1091
a(lp1092
a(lp1093
a(lp1094
a(lp1095
a(lp1096
a(lp1097
a(lp1098
a(lp1099
a(lp1100
a(lp1101
a(lp1102
a(lp1103
a(lp1104
a(lp1105
a(lp1106
a(lp1107
a(lp1108
a(lp1109
a(lp1110
a(lp1111
a(lp1112
a(lp1113
a(lp1114
a(lp1115
a(lp1116
a(lp1117
a(lp1118
a(lp1119
a(lp1120
a(lp1121
a(lp1122
a(lp1123
a(lp1124
a(lp1125
a(lp1126
a(lp1127
a(lp1128
a(lp1129
a(lp1130
a(lp1131
a(lp1132
a(lp1133
a(lp1134
a(lp1135
a(lp1136
a(lp1137
a(lp1138
a(lp1139
a(lp1140
a(lp1141
a(lp1142
a(lp1143
a(lp1144
a(lp1145
a(lp1146
a(lp1147
a(lp1148
a(lp1149
a(lp1150
a(lp1151
a(lp1152
a(lp1153
a(lp1154
a(lp1155
a(lp1156
a(lp1157
(g3
(g5
S'\x00\x00\x00\x80\xdb\x84\xd1?'
tRp1158
g3
(g5
S'\x00\x00\x00\x00\xd5\xab\xe0?'
tRp1159
S'15'
I7
tp1160
aa(lp1161
a(lp1162
a(lp1163
a(lp1164
a(lp1165
a(lp1166
a(lp1167
a(lp1168
a(lp1169
a(lp1170
a(lp1171
a(lp1172
a(lp1173
a(lp1174
a(lp1175
a(lp1176
a(lp1177
a(lp1178
a(lp1179
a(lp1180
a(lp1181
a(lp1182
a(lp1183
a(lp1184
a(lp1185
a(lp1186
a(lp1187
a(lp1188
a(lp1189
a(lp1190
a(lp1191
a(lp1192
a(lp1193
a(lp1194
a(lp1195
a(lp1196
a(lp1197
a(lp1198
a(lp1199
a(lp1200
a(lp1201
a(lp1202
a(lp1203
a(lp1204
a(lp1205
(g3
(g5
S'\x00\x00\x00\xa0\xd9\x19\xeb?'
tRp1206
g3
(g5
S'\x00\x00\x00\x80\xef\xed\xda?'
tRp1207
S'7'
I8
tp1208
aa(lp1209
a(lp1210
a(lp1211
a(lp1212
a(lp1213
a(lp1214
a(lp1215
a(lp1216
a(lp1217
a(lp1218
a(lp1219
a(lp1220
(g3
(g5
S'\x00\x00\x00\x80M\x8c\xd2?'
tRp1221
g3
(g5
S'\x00\x00\x00 \xb7\x15\xee?'
tRp1222
S'7'
I9
tp1223
aa(lp1224
a(lp1225
a(lp1226
a(lp1227
a(lp1228
a(lp1229
a(lp1230
a(lp1231
a(lp1232
a(lp1233
a(lp1234
a(lp1235
a(lp1236
a(lp1237
a(lp1238
a(lp1239
a(lp1240
a(lp1241
a(lp1242
a(lp1243
a(lp1244
a(lp1245
a(lp1246
a(lp1247
a(lp1248
a(lp1249
a(lp1250
a(lp1251
a(lp1252
a(lp1253
a(lp1254
a(lp1255
a(lp1256
a(lp1257
a(lp1258
a(lp1259
a(lp1260
a(lp1261
a(lp1262
a(lp1263
a(lp1264
a(lp1265
a(lp1266
a(lp1267
a(lp1268
a(lp1269
a(lp1270
a(lp1271
a(lp1272
a(lp1273
a(lp1274
a(lp1275
a(lp1276
a(lp1277
a(lp1278
a(lp1279
a(lp1280
a(lp1281
a(lp1282
a(lp1283
a(lp1284
a(lp1285
a(lp1286
a(lp1287
a(lp1288
a(lp1289
a(lp1290
a(lp1291
a(lp1292
a(lp1293
a(lp1294
a(lp1295
a(lp1296
a(lp1297
a(lp1298
a(lp1299
a(lp1300
a(lp1301
a(lp1302
a(lp1303
a(lp1304
a(lp1305
a(lp1306
a(lp1307
a(lp1308
a(lp1309
a(lp1310
a(lp1311
a(lp1312
a(lp1313
a(lp1314
a(lp1315
a(lp1316
(g3
(g5
S'\x00\x00\x00` \t\xeb?'
tRp1317
g3
(g5
S'\x00\x00\x00\xc0G\xe5\xda?'
tRp1318
S'7'
I10
tp1319
aa(lp1320
a(lp1321
a(lp1322
a(lp1323
a(lp1324
a(lp1325
a(lp1326
a(lp1327
a(lp1328
a(lp1329
a(lp1330
a(lp1331
a(lp1332
a(lp1333
a(lp1334
a(lp1335
a(lp1336
a(lp1337
a(lp1338
a(lp1339
a(lp1340
a(lp1341
a(lp1342
a(lp1343
a(lp1344
a(lp1345
a(lp1346
a(lp1347
a(lp1348
a(lp1349
a(lp1350
a(lp1351
a(lp1352
a(lp1353
a(lp1354
a(lp1355
a(lp1356
a(lp1357
a(lp1358
a(lp1359
a(lp1360
a(lp1361
a(lp1362
a(lp1363
a(lp1364
a(lp1365
(g3
(g5
S'\x00\x00\x00\xa0\xa4\xac\xee?'
tRp1366
g3
(g5
S'\x00\x00\x00\xc0\xd9\x8c\xe5?'
tRp1367
S'15'
I11
tp1368
aa(lp1369
a(lp1370
a(lp1371
a(lp1372
a(lp1373
a(lp1374
a(lp1375
a(lp1376
a(lp1377
a(lp1378
a(lp1379
a(lp1380
a(lp1381
a(lp1382
a(lp1383
a(lp1384
a(lp1385
a(lp1386
a(lp1387
a(lp1388
a(lp1389
a(lp1390
a(lp1391
a(lp1392
a(lp1393
a(lp1394
a(lp1395
a(lp1396
a(lp1397
a(lp1398
a(lp1399
a(lp1400
a(lp1401
a(lp1402
a(lp1403
a(lp1404
a(lp1405
a(lp1406
a(lp1407
a(lp1408
a(lp1409
(g3
(g5
S'\x00\x00\x00`\xefN\xef?'
tRp1410
g3
(g5
S'\x00\x00\x00`e\x1d\xe3?'
tRp1411
S'7'
I12
tp1412
aa(lp1413
a(lp1414
a(lp1415
a(lp1416
a(lp1417
a(lp1418
a(lp1419
a(lp1420
a(lp1421
a(lp1422
a(lp1423
a(lp1424
a(lp1425
a(lp1426
a(lp1427
a(lp1428
a(lp1429
a(lp1430
a(lp1431
a(lp1432
a(lp1433
a(lp1434
a(lp1435
a(lp1436
a(lp1437
a(lp1438
a(lp1439
a(lp1440
a(lp1441
a(lp1442
a(lp1443
a(lp1444
a(lp1445
a(lp1446
a(lp1447
a(lp1448
a(lp1449
a(lp1450
a(lp1451
(g3
(g5
S'\x00\x00\x00 -\xb1\xe8?'
tRp1452
g3
(g5
S'\x00\x00\x00\x00f\xe3\xde?'
tRp1453
S'7'
I13
tp1454
aa(lp1455
a(lp1456
a(lp1457
a(lp1458
a(lp1459
a(lp1460
a(lp1461
a(lp1462
a(lp1463
a(lp1464
a(lp1465
a(lp1466
a(lp1467
a(lp1468
a(lp1469
a(lp1470
a(lp1471
a(lp1472
a(lp1473
a(lp1474
a(lp1475
a(lp1476
a(lp1477
a(lp1478
a(lp1479
a(lp1480
a(lp1481
a(lp1482
a(lp1483
a(lp1484
a(lp1485
a(lp1486
a(lp1487
a(lp1488
a(lp1489
a(lp1490
a(lp1491
a(lp1492
a(lp1493
(g3
(g5
S'\x00\x00\x00\xc0\xc5\x11\xea?'
tRp1494
g3
(g5
S'\x00\x00\x00\xa0\x16\x8e\xdc?'
tRp1495
S'7'
I14
tp1496
aa(lp1497
a(lp1498
a(lp1499
a(lp1500
a(lp1501
a(lp1502
a(lp1503
a(lp1504
a(lp1505
a(lp1506
a(lp1507
a(lp1508
a(lp1509
a(lp1510
a(lp1511
a(lp1512
a(lp1513
a(lp1514
a(lp1515
a(lp1516
a(lp1517
a(lp1518
a(lp1519
a(lp1520
a(lp1521
a(lp1522
a(lp1523
a(lp1524
a(lp1525
(g3
(g5
S'\x00\x00\x00\x80\x10\x18\xeb?'
tRp1526
g3
(g5
S'\x00\x00\x00\xa0\xb3\x81\xda?'
tRp1527
S'7'
I15
tp1528
aa(lp1529
a(lp1530
a(lp1531
a(lp1532
a(lp1533
a(lp1534
a(lp1535
a(lp1536
a(lp1537
a(lp1538
a(lp1539
a(lp1540
a(lp1541
a(lp1542
a(lp1543
a(lp1544
a(lp1545
a(lp1546
a(lp1547
a(lp1548
a(lp1549
a(lp1550
a(lp1551
a(lp1552
a(lp1553
a(lp1554
a(lp1555
a(lp1556
a(lp1557
a(lp1558
a(lp1559
a(lp1560
a(lp1561
a(lp1562
a(lp1563
a(lp1564
a(lp1565
a(lp1566
a(lp1567
a(lp1568
a(lp1569
a(lp1570
a(lp1571
a(lp1572
a(lp1573
a(lp1574
a(lp1575
a(lp1576
a(lp1577
a(lp1578
a(lp1579
a(lp1580
a(lp1581
a(lp1582
a(lp1583
a(lp1584
a(lp1585
a(lp1586
a(lp1587
a(lp1588
a(lp1589
a(lp1590
a(lp1591
a(lp1592
a(lp1593
a(lp1594
a(lp1595
a(lp1596
a(lp1597
a(lp1598
a(lp1599
a(lp1600
a(lp1601
a(lp1602
a(lp1603
a(lp1604
a(lp1605
a(lp1606
a(lp1607
a(lp1608
a(lp1609
a(lp1610
a(lp1611
a(lp1612
a(lp1613
a(lp1614
a(lp1615
a(lp1616
a(lp1617
a(lp1618
a(lp1619
a(lp1620
a(lp1621
a(lp1622
a(lp1623
a(lp1624
a(lp1625
a(lp1626
a(lp1627
a(lp1628
a(lp1629
a(lp1630
a(lp1631
a(lp1632
a(lp1633
a(lp1634
a(lp1635
a(lp1636
a(lp1637
a(lp1638
a(lp1639
a(lp1640
a(lp1641
a(lp1642
a(lp1643
a(lp1644
a(lp1645
a(lp1646
a(lp1647
a(lp1648
a(lp1649
a(lp1650
a(lp1651
a(lp1652
a(lp1653
a(lp1654
a(lp1655
a(lp1656
a(lp1657
a(lp1658
a(lp1659
a(lp1660
a(lp1661
a(lp1662
a(lp1663
a(lp1664
a(lp1665
a(lp1666
a(lp1667
a(lp1668
a(lp1669
a(lp1670
a(lp1671
a(lp1672
a(lp1673
a(lp1674
a(lp1675
a(lp1676
a(lp1677
a(lp1678
a(lp1679
a(lp1680
a(lp1681
a(lp1682
a(lp1683
a(lp1684
a(lp1685
a(lp1686
a(lp1687
a(lp1688
a(lp1689
a(lp1690
a(lp1691
a(lp1692
a(lp1693
a(lp1694
a(lp1695
a(lp1696
a(lp1697
a(lp1698
a(lp1699
a(lp1700
a(lp1701
a(lp1702
a(lp1703
a(lp1704
a(lp1705
a(lp1706
a(lp1707
a(lp1708
a(lp1709
a(lp1710
a(lp1711
a(lp1712
a(lp1713
a(lp1714
a(lp1715
a(lp1716
a(lp1717
a(lp1718
a(lp1719
a(lp1720
a(lp1721
a(lp1722
a(lp1723
a(lp1724
a(lp1725
a(lp1726
a(lp1727
a(lp1728
a(lp1729
a(lp1730
a(lp1731
a(lp1732
a(lp1733
a(lp1734
a(lp1735
a(lp1736
a(lp1737
a(lp1738
a(lp1739
a(lp1740
a(lp1741
a(lp1742
a(lp1743
a(lp1744
a(lp1745
a(lp1746
a(lp1747
a(lp1748
a(lp1749
a(lp1750
a(lp1751
a(lp1752
a(lp1753
a(lp1754
a(lp1755
a(lp1756
a(lp1757
a(lp1758
a(lp1759
a(lp1760
a(lp1761
a(lp1762
a(lp1763
a(lp1764
a(lp1765
a(lp1766
a(lp1767
a(lp1768
a(lp1769
a(lp1770
a(lp1771
a(lp1772
a(lp1773
a(lp1774
a(lp1775
a(lp1776
a(lp1777
a(lp1778
a(lp1779
a(lp1780
a(lp1781
a(lp1782
a(lp1783
a(lp1784
a(lp1785
a(lp1786
a(lp1787
a(lp1788
a(lp1789
a(lp1790
a(lp1791
a(lp1792
a(lp1793
a(lp1794
a(lp1795
a(lp1796
a(lp1797
a(lp1798
a(lp1799
a(lp1800
a(lp1801
a(lp1802
a(lp1803
a(lp1804
a(lp1805
a(lp1806
a(lp1807
a(lp1808
a(lp1809
a(lp1810
a(lp1811
a(lp1812
a(lp1813
a(lp1814
a(lp1815
a(lp1816
a(lp1817
a(lp1818
a(lp1819
a(lp1820
a(lp1821
a(lp1822
a(lp1823
a(lp1824
a(lp1825
a(lp1826
a(lp1827
a(lp1828
a(lp1829
a(lp1830
a(lp1831
a(lp1832
a(lp1833
a(lp1834
a(lp1835
a(lp1836
a(lp1837
a(lp1838
a(lp1839
a(lp1840
a(lp1841
a(lp1842
a(lp1843
a(lp1844
a(lp1845
a(lp1846
a(lp1847
a(lp1848
a(lp1849
a(lp1850
a(lp1851
a(lp1852
a(lp1853
a(lp1854
a(lp1855
a(lp1856
a(lp1857
(g3
(g5
S'\x00\x00\x00\xc03\xbb\xec?'
tRp1858
g3
(g5
S'\x00\x00\x00\xe0\x80\x8d\xd8?'
tRp1859
S'6'
I16
tp1860
aa.